; Function Attrs: mustprogress uwtable
define noundef i32 @_ZN6icu_7511MeasureUnit12getAvailableEPKcPS0_iR10UErrorCode(ptr noundef %type, ptr nocapture noundef %dest, i32 noundef %destCapacity, ptr nocapture noundef nonnull align 4 dereferenceable(4) %errorCode) local_unnamed_addr #1 align 2 personality ptr @__gxx_personality_v0 {
entry:
  %ref.tmp.i = alloca %"class.icu_75::StringPiece", align 8
  %agg.tmp = alloca %"class.icu_75::StringPiece", align 8
  %0 = load i32, ptr %errorCode, align 4
  %cmp.i = icmp slt i32 %0, 1
  br i1 %cmp.i, label %if.end, label %return

if.end:                                           ; preds = %entry
  call void @_ZN6icu_7511StringPieceC1EPKc(ptr noundef nonnull align 8 dereferenceable(12) %agg.tmp, ptr noundef %type)
  %1 = load ptr, ptr %agg.tmp, align 8
  %2 = getelementptr inbounds i8, ptr %agg.tmp, i64 8
  %3 = load i32, ptr %2, align 8
  call void @llvm.lifetime.start.p0(i64 16, ptr nonnull %ref.tmp.i)
  br label %while.cond.outer.i

while.cond.outer.i:                               ; preds = %if.end.i, %if.end
  %end.addr.0.ph.i = phi i32 [ %div.i, %if.end.i ], [ 23, %if.end ]
  %start.addr.0.ph.i = phi i32 [ %start.addr.010.i, %if.end.i ], [ 0, %if.end ]
  %cmp9.i = icmp slt i32 %start.addr.0.ph.i, %end.addr.0.ph.i
  br i1 %cmp9.i, label %while.body.i, label %_ZN6icu_75L12binarySearchEPKPKciiNS_11StringPieceE.exit.thread

while.body.i:                                     ; preds = %while.cond.outer.i, %if.then.i
  %start.addr.010.i = phi i32 [ %add3.i, %if.then.i ], [ %start.addr.0.ph.i, %while.cond.outer.i ]
  %add.i = add nsw i32 %start.addr.010.i, %end.addr.0.ph.i
  %div.i = sdiv i32 %add.i, 2
  %idxprom.i = sext i32 %div.i to i64
  %arrayidx.i = getelementptr inbounds ptr, ptr @_ZN6icu_75L6gTypesE, i64 %idxprom.i
  %4 = load ptr, ptr %arrayidx.i, align 8
  call void @_ZN6icu_7511StringPieceC1EPKc(ptr noundef nonnull align 8 dereferenceable(12) %ref.tmp.i, ptr noundef %4)
  %call.i = call noundef i32 @_ZN6icu_7511StringPiece7compareES0_(ptr noundef nonnull align 8 dereferenceable(12) %ref.tmp.i, ptr %1, i32 %3)
  %cmp2.i = icmp slt i32 %call.i, 0
  br i1 %cmp2.i, label %if.then.i, label %if.end.i

if.then.i:                                        ; preds = %while.body.i
  %add3.i = add nsw i32 %div.i, 1
  %cmp.i11 = icmp slt i32 %add3.i, %end.addr.0.ph.i
  br i1 %cmp.i11, label %while.body.i, label %_ZN6icu_75L12binarySearchEPKPKciiNS_11StringPieceE.exit.thread, !llvm.loop !6

if.end.i:                                         ; preds = %while.body.i
  %cmp4.i = icmp eq i32 %call.i, 0
  br i1 %cmp4.i, label %_ZN6icu_75L12binarySearchEPKPKciiNS_11StringPieceE.exit, label %while.cond.outer.i, !llvm.loop !6

_ZN6icu_75L12binarySearchEPKPKciiNS_11StringPieceE.exit.thread: ; preds = %while.cond.outer.i, %if.then.i
  call void @llvm.lifetime.end.p0(i64 16, ptr nonnull %ref.tmp.i)
  br label %return

_ZN6icu_75L12binarySearchEPKPKciiNS_11StringPieceE.exit: ; preds = %if.end.i
  call void @llvm.lifetime.end.p0(i64 16, ptr nonnull %ref.tmp.i)
  %add.i.off = add i32 %add.i, 3
  %cmp = icmp ult i32 %add.i.off, 2
  br i1 %cmp, label %return, label %if.end3

if.end3:                                          ; preds = %_ZN6icu_75L12binarySearchEPKPKciiNS_11StringPieceE.exit
  %add = add nsw i32 %div.i, 1
  %idxprom = sext i32 %add to i64
  %arrayidx = getelementptr inbounds [24 x i32], ptr @_ZN6icu_75L8gOffsetsE, i64 0, i64 %idxprom
  %5 = load i32, ptr %arrayidx, align 4
  %arrayidx5 = getelementptr inbounds [24 x i32], ptr @_ZN6icu_75L8gOffsetsE, i64 0, i64 %idxprom.i
  %6 = load i32, ptr %arrayidx5, align 4
  %sub = sub nsw i32 %5, %6
  %cmp6 = icmp sgt i32 %sub, %destCapacity
  br i1 %cmp6, label %if.then7, label %for.cond.preheader

for.cond.preheader:                               ; preds = %if.end3
  %cmp921 = icmp sgt i32 %sub, 0
  br i1 %cmp921, label %for.body.lr.ph, label %return

for.body.lr.ph:                                   ; preds = %for.cond.preheader
  %conv.i12 = trunc i32 %div.i to i8
  %wide.trip.count = zext nneg i32 %sub to i64
  br label %for.body

if.then7:                                         ; preds = %if.end3
  store i32 15, ptr %errorCode, align 4
  br label %return

for.body:                                         ; preds = %for.body.lr.ph, %_ZN6icu_7511MeasureUnit5setToEii.exit
  %indvars.iv = phi i64 [ 0, %for.body.lr.ph ], [ %indvars.iv.next, %_ZN6icu_7511MeasureUnit5setToEii.exit ]
  %arrayidx11 = getelementptr inbounds %"class.icu_75::MeasureUnit", ptr %dest, i64 %indvars.iv
  %fTypeId.i = getelementptr inbounds i8, ptr %arrayidx11, i64 18
  store i8 %conv.i12, ptr %fTypeId.i, align 2
  %conv2.i = trunc i64 %indvars.iv to i16
  %fSubTypeId.i = getelementptr inbounds i8, ptr %arrayidx11, i64 16
  store i16 %conv2.i, ptr %fSubTypeId.i, align 8
  %fImpl.i = getelementptr inbounds i8, ptr %arrayidx11, i64 8
  %7 = load ptr, ptr %fImpl.i, align 8
  %cmp.not.i = icmp eq ptr %7, null
  br i1 %cmp.not.i, label %_ZN6icu_7511MeasureUnit5setToEii.exit, label %delete.notnull.i

delete.notnull.i:                                 ; preds = %for.body
  %identifier.i.i = getelementptr inbounds i8, ptr %7, i64 96
  call void @_ZN6icu_7515MaybeStackArrayIcLi40EED1Ev(ptr noundef nonnull align 8 dereferenceable(53) %identifier.i.i) #17
  %singleUnits.i.i = getelementptr inbounds i8, ptr %7, i64 8
  %8 = load i32, ptr %singleUnits.i.i, align 8
  %cmp3.i.i.i.i = icmp sgt i32 %8, 0
  br i1 %cmp3.i.i.i.i, label %for.body.lr.ph.i.i.i.i, label %for.end.i.i.i.i

for.body.lr.ph.i.i.i.i:                           ; preds = %delete.notnull.i
  %fPool.i.i.i.i = getelementptr inbounds i8, ptr %7, i64 16
  br label %for.body.i.i.i.i

for.body.i.i.i.i:                                 ; preds = %for.inc.i.i.i.i, %for.body.lr.ph.i.i.i.i
  %9 = phi i32 [ %8, %for.body.lr.ph.i.i.i.i ], [ %12, %for.inc.i.i.i.i ]
  %indvars.iv.i.i.i.i = phi i64 [ 0, %for.body.lr.ph.i.i.i.i ], [ %indvars.iv.next.i.i.i.i, %for.inc.i.i.i.i ]
  %10 = load ptr, ptr %fPool.i.i.i.i, align 8
  %arrayidx.i.i.i.i.i = getelementptr inbounds ptr, ptr %10, i64 %indvars.iv.i.i.i.i
  %11 = load ptr, ptr %arrayidx.i.i.i.i.i, align 8
  %isnull.i.i.i.i = icmp eq ptr %11, null
  br i1 %isnull.i.i.i.i, label %for.inc.i.i.i.i, label %delete.notnull.i.i.i.i

delete.notnull.i.i.i.i:                           ; preds = %for.body.i.i.i.i
  call void @_ZN6icu_757UMemorydlEPv(ptr noundef nonnull %11) #17
  %.pre.i.i.i.i = load i32, ptr %singleUnits.i.i, align 8
  br label %for.inc.i.i.i.i

for.inc.i.i.i.i:                                  ; preds = %delete.notnull.i.i.i.i, %for.body.i.i.i.i
  %12 = phi i32 [ %9, %for.body.i.i.i.i ], [ %.pre.i.i.i.i, %delete.notnull.i.i.i.i ]
  %indvars.iv.next.i.i.i.i = add nuw nsw i64 %indvars.iv.i.i.i.i, 1
  %13 = sext i32 %12 to i64
  %cmp.i.i.i.i = icmp slt i64 %indvars.iv.next.i.i.i.i, %13
  br i1 %cmp.i.i.i.i, label %for.body.i.i.i.i, label %for.end.i.i.i.i, !llvm.loop !4

for.end.i.i.i.i:                                  ; preds = %for.inc.i.i.i.i, %delete.notnull.i
  %needToRelease.i.i.i.i.i.i = getelementptr inbounds i8, ptr %7, i64 28
  %14 = load i8, ptr %needToRelease.i.i.i.i.i.i, align 4
  %tobool.not.i.i.i.i.i.i = icmp eq i8 %14, 0
  br i1 %tobool.not.i.i.i.i.i.i, label %_ZN6icu_7515MeasureUnitImplD2Ev.exit.i, label %if.then.i.i.i.i.i.i

if.then.i.i.i.i.i.i:                              ; preds = %for.end.i.i.i.i
  %fPool2.i.i.i.i = getelementptr inbounds i8, ptr %7, i64 16
  %15 = load ptr, ptr %fPool2.i.i.i.i, align 8
  invoke void @uprv_free_75(ptr noundef %15)
          to label %_ZN6icu_7515MeasureUnitImplD2Ev.exit.i unwind label %terminate.lpad.i.i.i.i.i

terminate.lpad.i.i.i.i.i:                         ; preds = %if.then.i.i.i.i.i.i
  %16 = landingpad { ptr, i32 }
          catch ptr null
  %17 = extractvalue { ptr, i32 } %16, 0
  call void @__clang_call_terminate(ptr %17) #19
  unreachable

_ZN6icu_7515MeasureUnitImplD2Ev.exit.i:           ; preds = %if.then.i.i.i.i.i.i, %for.end.i.i.i.i
  call void @_ZN6icu_757UMemorydlEPv(ptr noundef nonnull %7) #17
  store ptr null, ptr %fImpl.i, align 8
  br label %_ZN6icu_7511MeasureUnit5setToEii.exit

_ZN6icu_7511MeasureUnit5setToEii.exit:            ; preds = %for.body, %_ZN6icu_7515MeasureUnitImplD2Ev.exit.i
  %indvars.iv.next = add nuw nsw i64 %indvars.iv, 1
  %exitcond.not = icmp eq i64 %indvars.iv.next, %wide.trip.count
  br i1 %exitcond.not, label %return, label %for.body, !llvm.loop !11

return:                                           ; preds = %_ZN6icu_7511MeasureUnit5setToEii.exit, %for.cond.preheader, %_ZN6icu_75L12binarySearchEPKPKciiNS_11StringPieceE.exit.thread, %_ZN6icu_75L12binarySearchEPKPKciiNS_11StringPieceE.exit, %entry, %if.then7
  %retval.0 = phi i32 [ %sub, %if.then7 ], [ 0, %entry ], [ 0, %_ZN6icu_75L12binarySearchEPKPKciiNS_11StringPieceE.exit ], [ 0, %_ZN6icu_75L12binarySearchEPKPKciiNS_11StringPieceE.exit.thread ], [ %sub, %for.cond.preheader ], [ %sub, %_ZN6icu_7511MeasureUnit5setToEii.exit ]
  ret i32 %retval.0
}